target datalayout = "e-m:e-p270:32:32-p271:32:32-p272:64:64-i64:64-i128:128-f80:128-n8:16:32:64-S128"
target triple = "x86_64-pc-linux-gnu"

%struct._generic_N_Vector = type { ptr, ptr, ptr }
%struct._generic_N_Vector_Ops = type { ptr, ptr, ptr, ptr, ptr, ptr, ptr, ptr, ptr, ptr, ptr, ptr, ptr, ptr, ptr, ptr, ptr, ptr, ptr, ptr, ptr, ptr, ptr, ptr, ptr, ptr, ptr, ptr, ptr, ptr, ptr, ptr, ptr, ptr, ptr, ptr, ptr, ptr, ptr, ptr, ptr, ptr, ptr, ptr, ptr, ptr, ptr, ptr, ptr, ptr, ptr, ptr, ptr, ptr, ptr, ptr }
%struct._N_VectorContent_SensWrapper = type { ptr, i32, i32 }

; Function Attrs: nounwind uwtable
define ptr @N_VNewEmpty_SensWrapper(i32 noundef %0, ptr noundef %1) #0 {
  %3 = alloca ptr, align 8
  %4 = alloca i32, align 4
  %5 = alloca ptr, align 8
  %6 = alloca i32, align 4
  %7 = alloca ptr, align 8
  %8 = alloca ptr, align 8
  %9 = alloca i32, align 4
  store i32 %0, ptr %4, align 4, !tbaa !3
  store ptr %1, ptr %5, align 8, !tbaa !7
  call void @llvm.lifetime.start.p0(i64 4, ptr %6) #5
  call void @llvm.lifetime.start.p0(i64 8, ptr %7) #5
  call void @llvm.lifetime.start.p0(i64 8, ptr %8) #5
  %10 = load i32, ptr %4, align 4, !tbaa !3
  %11 = icmp slt i32 %10, 1
  br i1 %11, label %12, label %13

12:                                               ; preds = %2
  store ptr null, ptr %3, align 8
  store i32 1, ptr %9, align 4
  br label %154

13:                                               ; preds = %2
  store ptr null, ptr %7, align 8, !tbaa !10
  %14 = load ptr, ptr %5, align 8, !tbaa !7
  %15 = call ptr @N_VNewEmpty(ptr noundef %14)
  store ptr %15, ptr %7, align 8, !tbaa !10
  %16 = load ptr, ptr %7, align 8, !tbaa !10
  %17 = icmp eq ptr %16, null
  br i1 %17, label %18, label %19

18:                                               ; preds = %13
  store ptr null, ptr %3, align 8
  store i32 1, ptr %9, align 4
  br label %154

19:                                               ; preds = %13
  %20 = load ptr, ptr %7, align 8, !tbaa !10
  %21 = getelementptr inbounds nuw %struct._generic_N_Vector, ptr %20, i32 0, i32 1
  %22 = load ptr, ptr %21, align 8, !tbaa !12
  %23 = getelementptr inbounds nuw %struct._generic_N_Vector_Ops, ptr %22, i32 0, i32 1
  store ptr @N_VClone_SensWrapper, ptr %23, align 8, !tbaa !15
  %24 = load ptr, ptr %7, align 8, !tbaa !10
  %25 = getelementptr inbounds nuw %struct._generic_N_Vector, ptr %24, i32 0, i32 1
  %26 = load ptr, ptr %25, align 8, !tbaa !12
  %27 = getelementptr inbounds nuw %struct._generic_N_Vector_Ops, ptr %26, i32 0, i32 2
  store ptr @N_VCloneEmpty_SensWrapper, ptr %27, align 8, !tbaa !17
  %28 = load ptr, ptr %7, align 8, !tbaa !10
  %29 = getelementptr inbounds nuw %struct._generic_N_Vector, ptr %28, i32 0, i32 1
  %30 = load ptr, ptr %29, align 8, !tbaa !12
  %31 = getelementptr inbounds nuw %struct._generic_N_Vector_Ops, ptr %30, i32 0, i32 3
  store ptr @N_VDestroy_SensWrapper, ptr %31, align 8, !tbaa !18
  %32 = load ptr, ptr %7, align 8, !tbaa !10
  %33 = getelementptr inbounds nuw %struct._generic_N_Vector, ptr %32, i32 0, i32 1
  %34 = load ptr, ptr %33, align 8, !tbaa !12
  %35 = getelementptr inbounds nuw %struct._generic_N_Vector_Ops, ptr %34, i32 0, i32 11
  store ptr @N_VLinearSum_SensWrapper, ptr %35, align 8, !tbaa !19
  %36 = load ptr, ptr %7, align 8, !tbaa !10
  %37 = getelementptr inbounds nuw %struct._generic_N_Vector, ptr %36, i32 0, i32 1
  %38 = load ptr, ptr %37, align 8, !tbaa !12
  %39 = getelementptr inbounds nuw %struct._generic_N_Vector_Ops, ptr %38, i32 0, i32 12
  store ptr @N_VConst_SensWrapper, ptr %39, align 8, !tbaa !20
  %40 = load ptr, ptr %7, align 8, !tbaa !10
  %41 = getelementptr inbounds nuw %struct._generic_N_Vector, ptr %40, i32 0, i32 1
  %42 = load ptr, ptr %41, align 8, !tbaa !12
  %43 = getelementptr inbounds nuw %struct._generic_N_Vector_Ops, ptr %42, i32 0, i32 13
  store ptr @N_VProd_SensWrapper, ptr %43, align 8, !tbaa !21
  %44 = load ptr, ptr %7, align 8, !tbaa !10
  %45 = getelementptr inbounds nuw %struct._generic_N_Vector, ptr %44, i32 0, i32 1
  %46 = load ptr, ptr %45, align 8, !tbaa !12
  %47 = getelementptr inbounds nuw %struct._generic_N_Vector_Ops, ptr %46, i32 0, i32 14
  store ptr @N_VDiv_SensWrapper, ptr %47, align 8, !tbaa !22
  %48 = load ptr, ptr %7, align 8, !tbaa !10
  %49 = getelementptr inbounds nuw %struct._generic_N_Vector, ptr %48, i32 0, i32 1
  %50 = load ptr, ptr %49, align 8, !tbaa !12
  %51 = getelementptr inbounds nuw %struct._generic_N_Vector_Ops, ptr %50, i32 0, i32 15
  store ptr @N_VScale_SensWrapper, ptr %51, align 8, !tbaa !23
  %52 = load ptr, ptr %7, align 8, !tbaa !10
  %53 = getelementptr inbounds nuw %struct._generic_N_Vector, ptr %52, i32 0, i32 1
  %54 = load ptr, ptr %53, align 8, !tbaa !12
  %55 = getelementptr inbounds nuw %struct._generic_N_Vector_Ops, ptr %54, i32 0, i32 16
  store ptr @N_VAbs_SensWrapper, ptr %55, align 8, !tbaa !24
  %56 = load ptr, ptr %7, align 8, !tbaa !10
  %57 = getelementptr inbounds nuw %struct._generic_N_Vector, ptr %56, i32 0, i32 1
  %58 = load ptr, ptr %57, align 8, !tbaa !12
  %59 = getelementptr inbounds nuw %struct._generic_N_Vector_Ops, ptr %58, i32 0, i32 17
  store ptr @N_VInv_SensWrapper, ptr %59, align 8, !tbaa !25
  %60 = load ptr, ptr %7, align 8, !tbaa !10
  %61 = getelementptr inbounds nuw %struct._generic_N_Vector, ptr %60, i32 0, i32 1
  %62 = load ptr, ptr %61, align 8, !tbaa !12
  %63 = getelementptr inbounds nuw %struct._generic_N_Vector_Ops, ptr %62, i32 0, i32 18
  store ptr @N_VAddConst_SensWrapper, ptr %63, align 8, !tbaa !26
  %64 = load ptr, ptr %7, align 8, !tbaa !10
  %65 = getelementptr inbounds nuw %struct._generic_N_Vector, ptr %64, i32 0, i32 1
  %66 = load ptr, ptr %65, align 8, !tbaa !12
  %67 = getelementptr inbounds nuw %struct._generic_N_Vector_Ops, ptr %66, i32 0, i32 19
  store ptr @N_VDotProd_SensWrapper, ptr %67, align 8, !tbaa !27
  %68 = load ptr, ptr %7, align 8, !tbaa !10
  %69 = getelementptr inbounds nuw %struct._generic_N_Vector, ptr %68, i32 0, i32 1
  %70 = load ptr, ptr %69, align 8, !tbaa !12
  %71 = getelementptr inbounds nuw %struct._generic_N_Vector_Ops, ptr %70, i32 0, i32 20
  store ptr @N_VMaxNorm_SensWrapper, ptr %71, align 8, !tbaa !28
  %72 = load ptr, ptr %7, align 8, !tbaa !10
  %73 = getelementptr inbounds nuw %struct._generic_N_Vector, ptr %72, i32 0, i32 1
  %74 = load ptr, ptr %73, align 8, !tbaa !12
  %75 = getelementptr inbounds nuw %struct._generic_N_Vector_Ops, ptr %74, i32 0, i32 22
  store ptr @N_VWrmsNormMask_SensWrapper, ptr %75, align 8, !tbaa !29
  %76 = load ptr, ptr %7, align 8, !tbaa !10
  %77 = getelementptr inbounds nuw %struct._generic_N_Vector, ptr %76, i32 0, i32 1
  %78 = load ptr, ptr %77, align 8, !tbaa !12
  %79 = getelementptr inbounds nuw %struct._generic_N_Vector_Ops, ptr %78, i32 0, i32 21
  store ptr @N_VWrmsNorm_SensWrapper, ptr %79, align 8, !tbaa !30
  %80 = load ptr, ptr %7, align 8, !tbaa !10
  %81 = getelementptr inbounds nuw %struct._generic_N_Vector, ptr %80, i32 0, i32 1
  %82 = load ptr, ptr %81, align 8, !tbaa !12
  %83 = getelementptr inbounds nuw %struct._generic_N_Vector_Ops, ptr %82, i32 0, i32 23
  store ptr @N_VMin_SensWrapper, ptr %83, align 8, !tbaa !31
  %84 = load ptr, ptr %7, align 8, !tbaa !10
  %85 = getelementptr inbounds nuw %struct._generic_N_Vector, ptr %84, i32 0, i32 1
  %86 = load ptr, ptr %85, align 8, !tbaa !12
  %87 = getelementptr inbounds nuw %struct._generic_N_Vector_Ops, ptr %86, i32 0, i32 24
  store ptr @N_VWL2Norm_SensWrapper, ptr %87, align 8, !tbaa !32
  %88 = load ptr, ptr %7, align 8, !tbaa !10
  %89 = getelementptr inbounds nuw %struct._generic_N_Vector, ptr %88, i32 0, i32 1
  %90 = load ptr, ptr %89, align 8, !tbaa !12
  %91 = getelementptr inbounds nuw %struct._generic_N_Vector_Ops, ptr %90, i32 0, i32 25
  store ptr @N_VL1Norm_SensWrapper, ptr %91, align 8, !tbaa !33
  %92 = load ptr, ptr %7, align 8, !tbaa !10
  %93 = getelementptr inbounds nuw %struct._generic_N_Vector, ptr %92, i32 0, i32 1
  %94 = load ptr, ptr %93, align 8, !tbaa !12
  %95 = getelementptr inbounds nuw %struct._generic_N_Vector_Ops, ptr %94, i32 0, i32 26
  store ptr @N_VCompare_SensWrapper, ptr %95, align 8, !tbaa !34
  %96 = load ptr, ptr %7, align 8, !tbaa !10
  %97 = getelementptr inbounds nuw %struct._generic_N_Vector, ptr %96, i32 0, i32 1
  %98 = load ptr, ptr %97, align 8, !tbaa !12
  %99 = getelementptr inbounds nuw %struct._generic_N_Vector_Ops, ptr %98, i32 0, i32 27
  store ptr @N_VInvTest_SensWrapper, ptr %99, align 8, !tbaa !35
  %100 = load ptr, ptr %7, align 8, !tbaa !10
  %101 = getelementptr inbounds nuw %struct._generic_N_Vector, ptr %100, i32 0, i32 1
  %102 = load ptr, ptr %101, align 8, !tbaa !12
  %103 = getelementptr inbounds nuw %struct._generic_N_Vector_Ops, ptr %102, i32 0, i32 28
  store ptr @N_VConstrMask_SensWrapper, ptr %103, align 8, !tbaa !36
  %104 = load ptr, ptr %7, align 8, !tbaa !10
  %105 = getelementptr inbounds nuw %struct._generic_N_Vector, ptr %104, i32 0, i32 1
  %106 = load ptr, ptr %105, align 8, !tbaa !12
  %107 = getelementptr inbounds nuw %struct._generic_N_Vector_Ops, ptr %106, i32 0, i32 29
  store ptr @N_VMinQuotient_SensWrapper, ptr %107, align 8, !tbaa !37
  store ptr null, ptr %8, align 8, !tbaa !38
  %108 = call noalias ptr @malloc(i64 noundef 16) #6
  store ptr %108, ptr %8, align 8, !tbaa !38
  %109 = load ptr, ptr %8, align 8, !tbaa !38
  %110 = icmp eq ptr %109, null
  br i1 %110, label %111, label %113

111:                                              ; preds = %19
  %112 = load ptr, ptr %7, align 8, !tbaa !10
  call void @N_VFreeEmpty(ptr noundef %112)
  store ptr null, ptr %3, align 8
  store i32 1, ptr %9, align 4
  br label %154

113:                                              ; preds = %19
  %114 = load i32, ptr %4, align 4, !tbaa !3
  %115 = load ptr, ptr %8, align 8, !tbaa !38
  %116 = getelementptr inbounds nuw %struct._N_VectorContent_SensWrapper, ptr %115, i32 0, i32 1
  store i32 %114, ptr %116, align 8, !tbaa !40
  %117 = load ptr, ptr %8, align 8, !tbaa !38
  %118 = getelementptr inbounds nuw %struct._N_VectorContent_SensWrapper, ptr %117, i32 0, i32 2
  store i32 0, ptr %118, align 4, !tbaa !43
  %119 = load ptr, ptr %8, align 8, !tbaa !38
  %120 = getelementptr inbounds nuw %struct._N_VectorContent_SensWrapper, ptr %119, i32 0, i32 0
  store ptr null, ptr %120, align 8, !tbaa !44
  %121 = load i32, ptr %4, align 4, !tbaa !3
  %122 = sext i32 %121 to i64
  %123 = mul i64 %122, 8
  %124 = call noalias ptr @malloc(i64 noundef %123) #6
  %125 = load ptr, ptr %8, align 8, !tbaa !38
  %126 = getelementptr inbounds nuw %struct._N_VectorContent_SensWrapper, ptr %125, i32 0, i32 0
  store ptr %124, ptr %126, align 8, !tbaa !44
  %127 = load ptr, ptr %8, align 8, !tbaa !38
  %128 = getelementptr inbounds nuw %struct._N_VectorContent_SensWrapper, ptr %127, i32 0, i32 0
  %129 = load ptr, ptr %128, align 8, !tbaa !44
  %130 = icmp eq ptr %129, null
  br i1 %130, label %131, label %134

131:                                              ; preds = %113
  %132 = load ptr, ptr %8, align 8, !tbaa !38
  call void @free(ptr noundef %132) #5
  %133 = load ptr, ptr %7, align 8, !tbaa !10
  call void @N_VFreeEmpty(ptr noundef %133)
  store ptr null, ptr %3, align 8
  store i32 1, ptr %9, align 4
  br label %154

134:                                              ; preds = %113
  store i32 0, ptr %6, align 4, !tbaa !3
  br label %135

135:                                              ; preds = %146, %134
  %136 = load i32, ptr %6, align 4, !tbaa !3
  %137 = load i32, ptr %4, align 4, !tbaa !3
  %138 = icmp slt i32 %136, %137
  br i1 %138, label %139, label %149

139:                                              ; preds = %135
  %140 = load ptr, ptr %8, align 8, !tbaa !38
  %141 = getelementptr inbounds nuw %struct._N_VectorContent_SensWrapper, ptr %140, i32 0, i32 0
  %142 = load ptr, ptr %141, align 8, !tbaa !44
  %143 = load i32, ptr %6, align 4, !tbaa !3
  %144 = sext i32 %143 to i64
  %145 = getelementptr inbounds ptr, ptr %142, i64 %144
  store ptr null, ptr %145, align 8, !tbaa !10
  br label %146

146:                                              ; preds = %139
  %147 = load i32, ptr %6, align 4, !tbaa !3
  %148 = add nsw i32 %147, 1
  store i32 %148, ptr %6, align 4, !tbaa !3
  br label %135

149:                                              ; preds = %135
  %150 = load ptr, ptr %8, align 8, !tbaa !38
  %151 = load ptr, ptr %7, align 8, !tbaa !10
  %152 = getelementptr inbounds nuw %struct._generic_N_Vector, ptr %151, i32 0, i32 0
  store ptr %150, ptr %152, align 8, !tbaa !45
  %153 = load ptr, ptr %7, align 8, !tbaa !10
  store ptr %153, ptr %3, align 8
  store i32 1, ptr %9, align 4
  br label %154

154:                                              ; preds = %149, %131, %111, %18, %12
  call void @llvm.lifetime.end.p0(i64 8, ptr %8) #5
  call void @llvm.lifetime.end.p0(i64 8, ptr %7) #5
  call void @llvm.lifetime.end.p0(i64 4, ptr %6) #5
  %155 = load ptr, ptr %3, align 8
  ret ptr %155
}