; Function Attrs: nounwind uwtable
define ptr @N_VNewEmpty_SensWrapper(i32 noundef %0, ptr noundef %1) local_unnamed_addr #0 {
  %3 = icmp slt i32 %0, 1
  br i1 %3, label %42, label %4

4:                                                ; preds = %2
  %5 = tail call ptr @N_VNewEmpty(ptr noundef %1) #7
  %6 = icmp eq ptr %5, null
  br i1 %6, label %42, label %7

7:                                                ; preds = %4
  %8 = getelementptr inbounds nuw i8, ptr %5, i64 8
  %9 = load ptr, ptr %8, align 8, !tbaa !3
  %10 = getelementptr inbounds nuw i8, ptr %9, i64 8
  store ptr @N_VClone_SensWrapper, ptr %10, align 8, !tbaa !10
  %11 = getelementptr inbounds nuw i8, ptr %9, i64 16
  store ptr @N_VCloneEmpty_SensWrapper, ptr %11, align 8, !tbaa !12
  %12 = getelementptr inbounds nuw i8, ptr %9, i64 24
  store ptr @N_VDestroy_SensWrapper, ptr %12, align 8, !tbaa !13
  %13 = getelementptr inbounds nuw i8, ptr %9, i64 88
  store ptr @N_VLinearSum_SensWrapper, ptr %13, align 8, !tbaa !14
  %14 = getelementptr inbounds nuw i8, ptr %9, i64 96
  store ptr @N_VConst_SensWrapper, ptr %14, align 8, !tbaa !15
  %15 = getelementptr inbounds nuw i8, ptr %9, i64 104
  store ptr @N_VProd_SensWrapper, ptr %15, align 8, !tbaa !16
  %16 = getelementptr inbounds nuw i8, ptr %9, i64 112
  store ptr @N_VDiv_SensWrapper, ptr %16, align 8, !tbaa !17
  %17 = getelementptr inbounds nuw i8, ptr %9, i64 120
  store ptr @N_VScale_SensWrapper, ptr %17, align 8, !tbaa !18
  %18 = getelementptr inbounds nuw i8, ptr %9, i64 128
  store ptr @N_VAbs_SensWrapper, ptr %18, align 8, !tbaa !19
  %19 = getelementptr inbounds nuw i8, ptr %9, i64 136
  store ptr @N_VInv_SensWrapper, ptr %19, align 8, !tbaa !20
  %20 = getelementptr inbounds nuw i8, ptr %9, i64 144
  store ptr @N_VAddConst_SensWrapper, ptr %20, align 8, !tbaa !21
  %21 = getelementptr inbounds nuw i8, ptr %9, i64 152
  store ptr @N_VDotProd_SensWrapper, ptr %21, align 8, !tbaa !22
  %22 = getelementptr inbounds nuw i8, ptr %9, i64 160
  store ptr @N_VMaxNorm_SensWrapper, ptr %22, align 8, !tbaa !23
  %23 = getelementptr inbounds nuw i8, ptr %9, i64 176
  store ptr @N_VWrmsNormMask_SensWrapper, ptr %23, align 8, !tbaa !24
  %24 = getelementptr inbounds nuw i8, ptr %9, i64 168
  store ptr @N_VWrmsNorm_SensWrapper, ptr %24, align 8, !tbaa !25
  %25 = getelementptr inbounds nuw i8, ptr %9, i64 184
  store ptr @N_VMin_SensWrapper, ptr %25, align 8, !tbaa !26
  %26 = getelementptr inbounds nuw i8, ptr %9, i64 192
  store ptr @N_VWL2Norm_SensWrapper, ptr %26, align 8, !tbaa !27
  %27 = getelementptr inbounds nuw i8, ptr %9, i64 200
  store ptr @N_VL1Norm_SensWrapper, ptr %27, align 8, !tbaa !28
  %28 = getelementptr inbounds nuw i8, ptr %9, i64 208
  store ptr @N_VCompare_SensWrapper, ptr %28, align 8, !tbaa !29
  %29 = getelementptr inbounds nuw i8, ptr %9, i64 216
  store ptr @N_VInvTest_SensWrapper, ptr %29, align 8, !tbaa !30
  %30 = getelementptr inbounds nuw i8, ptr %9, i64 224
  store ptr @N_VConstrMask_SensWrapper, ptr %30, align 8, !tbaa !31
  %31 = getelementptr inbounds nuw i8, ptr %9, i64 232
  store ptr @N_VMinQuotient_SensWrapper, ptr %31, align 8, !tbaa !32
  %32 = tail call noalias dereferenceable_or_null(16) ptr @malloc(i64 noundef 16) #8
  %33 = icmp eq ptr %32, null
  br i1 %33, label %34, label %35

34:                                               ; preds = %7
  tail call void @N_VFreeEmpty(ptr noundef nonnull %5) #7
  br label %42

35:                                               ; preds = %7
  %36 = getelementptr inbounds nuw i8, ptr %32, i64 8
  store i32 %0, ptr %36, align 8, !tbaa !33
  %37 = getelementptr inbounds nuw i8, ptr %32, i64 12
  store i32 0, ptr %37, align 4, !tbaa !37
  %38 = zext nneg i32 %0 to i64
  %39 = shl nuw nsw i64 %38, 3
  %calloc = tail call ptr @calloc(i64 1, i64 %39)
  store ptr %calloc, ptr %32, align 8, !tbaa !38
  %40 = icmp eq ptr %calloc, null
  br i1 %40, label %41, label %._crit_edge

41:                                               ; preds = %35
  tail call void @free(ptr noundef nonnull %32) #7
  tail call void @N_VFreeEmpty(ptr noundef nonnull %5) #7
  br label %42

._crit_edge:                                      ; preds = %35
  store ptr %32, ptr %5, align 8, !tbaa !39
  br label %42

42:                                               ; preds = %4, %2, %._crit_edge, %41, %34
  %.044 = phi ptr [ null, %34 ], [ null, %41 ], [ %5, %._crit_edge ], [ null, %2 ], [ null, %4 ]
  ret ptr %.044
}